target datalayout = "e-m:e-p270:32:32-p271:32:32-p272:64:64-i64:64-i128:128-f80:128-n8:16:32:64-S128"
target triple = "x86_64-pc-linux-gnu"

%struct.WOLFSSL_BUFFER_INFO = type { ptr, i32 }
%struct.ProtocolVersion = type { i8, i8 }
%struct.WOLFSSL_CTX = type <{ ptr, %struct.wolfSSL_RefWithMutex, i32, [4 x i8], %struct.WOLFSSL_BUFFER_INFO, %struct.WOLFSSL_BUFFER_INFO, ptr, ptr, i32, [4 x i8], ptr, i8, i8, [2 x i8], i32, i32, [4 x i8], ptr, ptr, ptr, i8, i16, i8, i8, i8, i16, i16, i16, i16, [2 x i8], i64, ptr, ptr, ptr, ptr, i32, i32, i16, [2 x i8], i32, [10 x i16], i8, [3 x i8], ptr, ptr, i32, [4 x i8], ptr, i8, [7 x i8] }>
%struct.wolfSSL_RefWithMutex = type { %union.pthread_mutex_t, i32 }
%union.pthread_mutex_t = type { %struct.__pthread_mutex_s }
%struct.__pthread_mutex_s = type { i32, i32, i32, i32, i32, i16, i16, %struct.__pthread_internal_list }
%struct.__pthread_internal_list = type { ptr, ptr }
%struct.WOLFSSL_METHOD = type { %struct.ProtocolVersion, i8, i8 }

; Function Attrs: nounwind uwtable
define i32 @wolfSSL_CTX_no_dhe_psk(ptr noundef %0) #0 {
  %2 = alloca i32, align 4
  %3 = alloca ptr, align 8
  store ptr %0, ptr %3, align 8, !tbaa !220
  %4 = load ptr, ptr %3, align 8, !tbaa !220
  %5 = icmp eq ptr %4, null
  br i1 %5, label %14, label %6

6:                                                ; preds = %1
  %7 = load ptr, ptr %3, align 8, !tbaa !220
  %8 = getelementptr inbounds nuw %struct.WOLFSSL_CTX, ptr %7, i32 0, i32 0
  %9 = load ptr, ptr %8, align 8, !tbaa !221
  %10 = getelementptr inbounds nuw %struct.WOLFSSL_METHOD, ptr %9, i32 0, i32 0
  %11 = load i16, ptr %10, align 1
  %12 = call i32 @IsAtLeastTLSv1_3(i16 %11)
  %13 = icmp ne i32 %12, 0
  br i1 %13, label %15, label %14

14:                                               ; preds = %6, %1
  store i32 -173, ptr %2, align 4
  br label %16

15:                                               ; preds = %6
  store i32 0, ptr %2, align 4
  br label %16

16:                                               ; preds = %15, %14
  %17 = load i32, ptr %2, align 4
  ret i32 %17
}